target datalayout = "e-m:e-p270:32:32-p271:32:32-p272:64:64-i64:64-i128:128-f80:128-n8:16:32:64-S128"
target triple = "x86_64-pc-linux-gnu"

%struct.pkcs12_enc = type { i32, ptr, i32 }

@.str.79 = private unnamed_addr constant [25 x i8] c"1cert_mac-%s_iter-%d.p12\00", align 1

; Function Attrs: nounwind uwtable
define internal i32 @test_single_cert_mac(ptr noundef %0) #0 {
  %2 = alloca ptr, align 8
  %3 = alloca [80 x i8], align 16
  %4 = alloca ptr, align 8
  store ptr %0, ptr %2, align 8, !tbaa !41
  call void @llvm.lifetime.start.p0(i64 80, ptr %3) #4
  call void @llvm.lifetime.start.p0(i64 8, ptr %4) #4
  %5 = getelementptr inbounds [80 x i8], ptr %3, i64 0, i64 0
  %6 = load ptr, ptr %2, align 8, !tbaa !41
  %7 = getelementptr inbounds nuw %struct.pkcs12_enc, ptr %6, i32 0, i32 0
  %8 = load i32, ptr %7, align 8, !tbaa !17
  %9 = call ptr @OBJ_nid2sn(i32 noundef %8)
  %10 = load ptr, ptr %2, align 8, !tbaa !41
  %11 = getelementptr inbounds nuw %struct.pkcs12_enc, ptr %10, i32 0, i32 2
  %12 = load i32, ptr %11, align 8, !tbaa !21
  %13 = call i32 (ptr, i64, ptr, ...) @BIO_snprintf(ptr noundef %5, i64 noundef 80, ptr noundef @.str.79, ptr noundef %9, i32 noundef %12)
  %14 = getelementptr inbounds [80 x i8], ptr %3, i64 0, i64 0
  %15 = call ptr @new_pkcs12_builder(ptr noundef %14)
  store ptr %15, ptr %4, align 8, !tbaa !15
  %16 = load ptr, ptr %4, align 8, !tbaa !15
  call void @start_pkcs12(ptr noundef %16)
  %17 = load ptr, ptr %4, align 8, !tbaa !15
  call void @start_contentinfo(ptr noundef %17)
  %18 = load ptr, ptr %4, align 8, !tbaa !15
  call void @add_certbag(ptr noundef %18, ptr noundef @CERT1, i32 noundef 497, ptr noundef null)
  %19 = load ptr, ptr %4, align 8, !tbaa !15
  call void @end_contentinfo(ptr noundef %19)
  %20 = load ptr, ptr %4, align 8, !tbaa !15
  %21 = load ptr, ptr %2, align 8, !tbaa !41
  call void @end_pkcs12_with_mac(ptr noundef %20, ptr noundef %21)
  %22 = load ptr, ptr %4, align 8, !tbaa !15
  %23 = load ptr, ptr %2, align 8, !tbaa !41
  call void @start_check_pkcs12_with_mac(ptr noundef %22, ptr noundef %23)
  %24 = load ptr, ptr %4, align 8, !tbaa !15
  call void @start_check_contentinfo(ptr noundef %24)
  %25 = load ptr, ptr %4, align 8, !tbaa !15
  call void @check_certbag(ptr noundef %25, ptr noundef @CERT1, i32 noundef 497, ptr noundef null)
  %26 = load ptr, ptr %4, align 8, !tbaa !15
  call void @end_check_contentinfo(ptr noundef %26)
  %27 = load ptr, ptr %4, align 8, !tbaa !15
  call void @end_check_pkcs12(ptr noundef %27)
  %28 = load ptr, ptr %4, align 8, !tbaa !15
  %29 = call i32 @end_pkcs12_builder(ptr noundef %28)
  call void @llvm.lifetime.end.p0(i64 8, ptr %4) #4
  call void @llvm.lifetime.end.p0(i64 80, ptr %3) #4
  ret i32 %29
}