; Function Attrs: nounwind uwtable
define internal fastcc i32 @test_single_cert_mac(ptr noundef nonnull %0) unnamed_addr #1 {
  %2 = alloca [80 x i8], align 16
  call void @llvm.lifetime.start.p0(i64 80, ptr nonnull %2) #4
  %3 = load i32, ptr %0, align 8, !tbaa !15
  %4 = tail call ptr @OBJ_nid2sn(i32 noundef %3) #4
  %5 = getelementptr inbounds nuw i8, ptr %0, i64 16
  %6 = load i32, ptr %5, align 8, !tbaa !19
  %7 = call i32 (ptr, i64, ptr, ...) @BIO_snprintf(ptr noundef nonnull %2, i64 noundef 80, ptr noundef nonnull @.str.79, ptr noundef %4, i32 noundef %6) #4
  %8 = call ptr @new_pkcs12_builder(ptr noundef nonnull %2) #4
  call void @start_pkcs12(ptr noundef %8) #4
  call void @start_contentinfo(ptr noundef %8) #4
  call void @add_certbag(ptr noundef %8, ptr noundef nonnull @CERT1, i32 noundef 497, ptr noundef null) #4
  call void @end_contentinfo(ptr noundef %8) #4
  call void @end_pkcs12_with_mac(ptr noundef %8, ptr noundef nonnull %0) #4
  call void @start_check_pkcs12_with_mac(ptr noundef %8, ptr noundef nonnull %0) #4
  call void @start_check_contentinfo(ptr noundef %8) #4
  call void @check_certbag(ptr noundef %8, ptr noundef nonnull @CERT1, i32 noundef 497, ptr noundef null) #4
  call void @end_check_contentinfo(ptr noundef %8) #4
  call void @end_check_pkcs12(ptr noundef %8) #4
  %9 = call i32 @end_pkcs12_builder(ptr noundef %8) #4
  call void @llvm.lifetime.end.p0(i64 80, ptr nonnull %2) #4
  ret i32 %9
}